target datalayout = "e-m:e-p270:32:32-p271:32:32-p272:64:64-i64:64-i128:128-f80:128-n8:16:32:64-S128"
target triple = "x86_64-pc-linux-gnu"

%union.pthread_mutex_t = type { %struct.__pthread_mutex_s }
%struct.__pthread_mutex_s = type { i32, i32, i32, i32, i32, i16, i16, %struct.__pthread_internal_list }
%struct.__pthread_internal_list = type { ptr, ptr }
%union.pthread_cond_t = type { %struct.__pthread_cond_s }
%struct.__pthread_cond_s = type { %union.__atomic_wide_counter, %union.__atomic_wide_counter, [2 x i32], [2 x i32], i32, i32, [2 x i32] }
%union.__atomic_wide_counter = type { i64 }
%struct.log_options_t = type { i32, i32, i32, i8, i8, i8, i32 }
%struct.slurmd_config = type { ptr, ptr, i32, [4096 x i8], ptr, ptr, ptr, ptr, i16, i16, i16, i16, ptr, i16, i64, i16, i16, i16, i16, i16, i16, i16, i16, i16, i16, i16, i64, i64, i32, i32, i16, ptr, ptr, ptr, i32, ptr, ptr, ptr, ptr, ptr, ptr, ptr, ptr, ptr, ptr, i32, ptr, ptr, i16, i32, i32, %struct.log_options_t, i32, i16, i64, i8, i8, i8, i8, i8, %union.pthread_mutex_t, i16, ptr, %union.pthread_cond_t, ptr, %union.pthread_cond_t, i8, i8, ptr, ptr }

@conf = dso_local global ptr null, align 8
@.str.217 = private unnamed_addr constant [45 x i8] c"%s: initializing slurmd spool directory `%s`\00", align 1
@__func__._set_slurmd_spooldir = private unnamed_addr constant [21 x i8] c"_set_slurmd_spooldir\00", align 1
@.str.218 = private unnamed_addr constant [14 x i8] c"mkdir(%s): %m\00", align 1
@.str.219 = private unnamed_addr constant [20 x i8] c"chmod(%s, 0755): %m\00", align 1

; Function Attrs: nounwind uwtable
define internal i32 @_set_slurmd_spooldir(ptr noundef %0) #0 {
  %2 = alloca i32, align 4
  %3 = alloca ptr, align 8
  store ptr %0, ptr %3, align 8
  br label %4

4:                                                ; preds = %1
  br label %5

5:                                                ; preds = %4
  %6 = call i32 @get_log_level()
  %7 = icmp sge i32 %6, 7
  br i1 %7, label %8, label %10

8:                                                ; preds = %5
  %9 = load ptr, ptr %3, align 8
  call void (i32, ptr, ...) @log_var(i32 noundef 7, ptr noundef @.str.217, ptr noundef @__func__._set_slurmd_spooldir, ptr noundef %9)
  br label %10

10:                                               ; preds = %8, %5
  br label %11

11:                                               ; preds = %10
  br label %12

12:                                               ; preds = %11
  %13 = load ptr, ptr %3, align 8
  %14 = call i32 @mkdir(ptr noundef %13, i32 noundef 493) #11
  %15 = icmp slt i32 %14, 0
  br i1 %15, label %16, label %25

16:                                               ; preds = %12
  %17 = call ptr @__errno_location() #15
  %18 = load i32, ptr %17, align 4
  %19 = icmp ne i32 %18, 17
  br i1 %19, label %20, label %24

20:                                               ; preds = %16
  %21 = load ptr, ptr @conf, align 8
  %22 = getelementptr inbounds nuw %struct.slurmd_config, ptr %21, i32 0, i32 46
  %23 = load ptr, ptr %22, align 8
  call void (ptr, ...) @fatal(ptr noundef @.str.218, ptr noundef %23) #12
  unreachable

24:                                               ; preds = %16
  br label %25

25:                                               ; preds = %24, %12
  %26 = load ptr, ptr %3, align 8
  %27 = call i32 @chmod(ptr noundef %26, i32 noundef 493) #11
  %28 = icmp slt i32 %27, 0
  br i1 %28, label %29, label %34

29:                                               ; preds = %25
  %30 = load ptr, ptr @conf, align 8
  %31 = getelementptr inbounds nuw %struct.slurmd_config, ptr %30, i32 0, i32 46
  %32 = load ptr, ptr %31, align 8
  %33 = call i32 (ptr, ...) @error(ptr noundef @.str.219, ptr noundef %32)
  store i32 -1, ptr %2, align 4
  br label %35

34:                                               ; preds = %25
  store i32 0, ptr %2, align 4
  br label %35

35:                                               ; preds = %34, %29
  %36 = load i32, ptr %2, align 4
  ret i32 %36
}