; Function Attrs: nounwind uwtable
define internal fastcc range(i32 -1, 1) i32 @_set_slurmd_spooldir(ptr noundef %0) unnamed_addr #0 {
  %2 = tail call i32 @get_log_level() #18
  %3 = icmp sgt i32 %2, 6
  br i1 %3, label %4, label %5

4:                                                ; preds = %1
  tail call void (i32, ptr, ...) @log_var(i32 noundef 7, ptr noundef nonnull @.str.217, ptr noundef nonnull @__func__._set_slurmd_spooldir, ptr noundef %0) #18
  br label %5

5:                                                ; preds = %4, %1
  %6 = tail call i32 @mkdir(ptr noundef %0, i32 noundef 493) #18
  %7 = icmp slt i32 %6, 0
  br i1 %7, label %8, label %15

8:                                                ; preds = %5
  %9 = tail call ptr @__errno_location() #21
  %10 = load i32, ptr %9, align 4
  %.not = icmp eq i32 %10, 17
  br i1 %.not, label %15, label %11

11:                                               ; preds = %8
  %12 = load ptr, ptr @conf, align 8
  %13 = getelementptr inbounds nuw i8, ptr %12, i64 4360
  %14 = load ptr, ptr %13, align 8
  tail call void (ptr, ...) @fatal(ptr noundef nonnull @.str.218, ptr noundef %14) #19
  unreachable

15:                                               ; preds = %8, %5
  %16 = tail call i32 @chmod(ptr noundef %0, i32 noundef 493) #18
  %17 = icmp slt i32 %16, 0
  br i1 %17, label %18, label %23

18:                                               ; preds = %15
  %19 = load ptr, ptr @conf, align 8
  %20 = getelementptr inbounds nuw i8, ptr %19, i64 4360
  %21 = load ptr, ptr %20, align 8
  %22 = tail call i32 (ptr, ...) @error(ptr noundef nonnull @.str.219, ptr noundef %21) #18
  br label %23

23:                                               ; preds = %15, %18
  %.0 = phi i32 [ -1, %18 ], [ 0, %15 ]
  ret i32 %.0
}